target datalayout = "e-m:e-p270:32:32-p271:32:32-p272:64:64-i64:64-i128:128-f80:128-n8:16:32:64-S128"
target triple = "x86_64-unknown-linux-gnu"

%"struct.Imf_3_2::(anonymous namespace)::memdata" = type { ptr, i64 }

; Function Attrs: mustprogress nounwind uwtable
define internal noundef i64 @_ZN7Imf_3_212_GLOBAL__N_114memstream_sizeEPK19_priv_exr_context_tPv(ptr noundef %ctxt, ptr noundef %userdata) #5 {
entry:
  %retval = alloca i64, align 8
  %ctxt.addr = alloca ptr, align 8
  %userdata.addr = alloca ptr, align 8
  %md = alloca ptr, align 8
  store ptr %ctxt, ptr %ctxt.addr, align 8
  store ptr %userdata, ptr %userdata.addr, align 8
  %0 = load ptr, ptr %userdata.addr, align 8
  %tobool = icmp ne ptr %0, null
  br i1 %tobool, label %if.then, label %if.end

if.then:                                          ; preds = %entry
  %1 = load ptr, ptr %userdata.addr, align 8
  store ptr %1, ptr %md, align 8
  %2 = load ptr, ptr %md, align 8
  %bytes = getelementptr inbounds %"struct.Imf_3_2::(anonymous namespace)::memdata", ptr %2, i32 0, i32 1
  %3 = load i64, ptr %bytes, align 8
  store i64 %3, ptr %retval, align 8
  br label %return

if.end:                                           ; preds = %entry
  store i64 -1, ptr %retval, align 8
  br label %return

return:                                           ; preds = %if.end, %if.then
  %4 = load i64, ptr %retval, align 8
  ret i64 %4
}