; Function Attrs: mustprogress nofree norecurse nosync nounwind willreturn memory(argmem: read) uwtable
define internal noundef i64 @_ZN7Imf_3_212_GLOBAL__N_114memstream_sizeEPK19_priv_exr_context_tPv(ptr nocapture readnone %ctxt, ptr noundef readonly %userdata) #14 {
entry:
  %tobool.not = icmp eq ptr %userdata, null
  br i1 %tobool.not, label %return, label %if.then

if.then:                                          ; preds = %entry
  %bytes = getelementptr inbounds i8, ptr %userdata, i64 8
  %0 = load i64, ptr %bytes, align 8
  br label %return

return:                                           ; preds = %entry, %if.then
  %retval.0 = phi i64 [ %0, %if.then ], [ -1, %entry ]
  ret i64 %retval.0
}